target datalayout = "e-m:e-p270:32:32-p271:32:32-p272:64:64-i64:64-i128:128-f80:128-n8:16:32:64-S128"
target triple = "x86_64-pc-linux-gnu"

; Function Attrs: inlinehint nounwind uwtable
define internal i32 @pmix_convert_string_to_time(ptr noundef %0) #3 {
  %2 = alloca ptr, align 8
  %3 = alloca ptr, align 8
  %4 = alloca i32, align 4
  %5 = alloca i32, align 4
  store ptr %0, ptr %2, align 8, !tbaa !9
  call void @llvm.lifetime.start.p0(i64 8, ptr %3) #7
  %6 = load ptr, ptr %2, align 8, !tbaa !9
  %7 = call ptr @PMIx_Argv_split(ptr noundef %6, i32 noundef 58)
  store ptr %7, ptr %3, align 8, !tbaa !52
  call void @llvm.lifetime.start.p0(i64 4, ptr %4) #7
  %8 = load ptr, ptr %3, align 8, !tbaa !52
  %9 = call i32 @PMIx_Argv_count(ptr noundef %8)
  store i32 %9, ptr %4, align 4, !tbaa !7
  call void @llvm.lifetime.start.p0(i64 4, ptr %5) #7
  %10 = load ptr, ptr %3, align 8, !tbaa !52
  %11 = load i32, ptr %4, align 4, !tbaa !7
  %12 = sub nsw i32 %11, 1
  %13 = sext i32 %12 to i64
  %14 = getelementptr inbounds ptr, ptr %10, i64 %13
  %15 = load ptr, ptr %14, align 8, !tbaa !9
  %16 = call i64 @strtoul(ptr noundef %15, ptr noundef null, i32 noundef 10) #7
  %17 = trunc i64 %16 to i32
  store i32 %17, ptr %5, align 4, !tbaa !7
  %18 = load i32, ptr %4, align 4, !tbaa !7
  %19 = sub nsw i32 %18, 2
  %20 = icmp sle i32 0, %19
  br i1 %20, label %21, label %42

21:                                               ; preds = %1
  %22 = load ptr, ptr %3, align 8, !tbaa !52
  %23 = load i32, ptr %4, align 4, !tbaa !7
  %24 = sub nsw i32 %23, 2
  %25 = sext i32 %24 to i64
  %26 = getelementptr inbounds ptr, ptr %22, i64 %25
  %27 = load ptr, ptr %26, align 8, !tbaa !9
  %28 = icmp ne ptr null, %27
  br i1 %28, label %29, label %42

29:                                               ; preds = %21
  %30 = load ptr, ptr %3, align 8, !tbaa !52
  %31 = load i32, ptr %4, align 4, !tbaa !7
  %32 = sub nsw i32 %31, 2
  %33 = sext i32 %32 to i64
  %34 = getelementptr inbounds ptr, ptr %30, i64 %33
  %35 = load ptr, ptr %34, align 8, !tbaa !9
  %36 = call i64 @strtoul(ptr noundef %35, ptr noundef null, i32 noundef 10) #7
  %37 = mul i64 60, %36
  %38 = load i32, ptr %5, align 4, !tbaa !7
  %39 = zext i32 %38 to i64
  %40 = add i64 %39, %37
  %41 = trunc i64 %40 to i32
  store i32 %41, ptr %5, align 4, !tbaa !7
  br label %42

42:                                               ; preds = %29, %21, %1
  %43 = load i32, ptr %4, align 4, !tbaa !7
  %44 = sub nsw i32 %43, 3
  %45 = icmp sle i32 0, %44
  br i1 %45, label %46, label %67

46:                                               ; preds = %42
  %47 = load ptr, ptr %3, align 8, !tbaa !52
  %48 = load i32, ptr %4, align 4, !tbaa !7
  %49 = sub nsw i32 %48, 3
  %50 = sext i32 %49 to i64
  %51 = getelementptr inbounds ptr, ptr %47, i64 %50
  %52 = load ptr, ptr %51, align 8, !tbaa !9
  %53 = icmp ne ptr null, %52
  br i1 %53, label %54, label %67

54:                                               ; preds = %46
  %55 = load ptr, ptr %3, align 8, !tbaa !52
  %56 = load i32, ptr %4, align 4, !tbaa !7
  %57 = sub nsw i32 %56, 3
  %58 = sext i32 %57 to i64
  %59 = getelementptr inbounds ptr, ptr %55, i64 %58
  %60 = load ptr, ptr %59, align 8, !tbaa !9
  %61 = call i64 @strtoul(ptr noundef %60, ptr noundef null, i32 noundef 10) #7
  %62 = mul i64 3600, %61
  %63 = load i32, ptr %5, align 4, !tbaa !7
  %64 = zext i32 %63 to i64
  %65 = add i64 %64, %62
  %66 = trunc i64 %65 to i32
  store i32 %66, ptr %5, align 4, !tbaa !7
  br label %67

67:                                               ; preds = %54, %46, %42
  %68 = load i32, ptr %4, align 4, !tbaa !7
  %69 = sub nsw i32 %68, 4
  %70 = icmp sle i32 0, %69
  br i1 %70, label %71, label %92

71:                                               ; preds = %67
  %72 = load ptr, ptr %3, align 8, !tbaa !52
  %73 = load i32, ptr %4, align 4, !tbaa !7
  %74 = sub nsw i32 %73, 4
  %75 = sext i32 %74 to i64
  %76 = getelementptr inbounds ptr, ptr %72, i64 %75
  %77 = load ptr, ptr %76, align 8, !tbaa !9
  %78 = icmp ne ptr null, %77
  br i1 %78, label %79, label %92

79:                                               ; preds = %71
  %80 = load ptr, ptr %3, align 8, !tbaa !52
  %81 = load i32, ptr %4, align 4, !tbaa !7
  %82 = sub nsw i32 %81, 4
  %83 = sext i32 %82 to i64
  %84 = getelementptr inbounds ptr, ptr %80, i64 %83
  %85 = load ptr, ptr %84, align 8, !tbaa !9
  %86 = call i64 @strtoul(ptr noundef %85, ptr noundef null, i32 noundef 10) #7
  %87 = mul i64 86400, %86
  %88 = load i32, ptr %5, align 4, !tbaa !7
  %89 = zext i32 %88 to i64
  %90 = add i64 %89, %87
  %91 = trunc i64 %90 to i32
  store i32 %91, ptr %5, align 4, !tbaa !7
  br label %92

92:                                               ; preds = %79, %71, %67
  %93 = load ptr, ptr %3, align 8, !tbaa !52
  call void @PMIx_Argv_free(ptr noundef %93)
  %94 = load i32, ptr %5, align 4, !tbaa !7
  call void @llvm.lifetime.end.p0(i64 4, ptr %5) #7
  call void @llvm.lifetime.end.p0(i64 4, ptr %4) #7
  call void @llvm.lifetime.end.p0(i64 8, ptr %3) #7
  ret i32 %94
}