; Function Attrs: inlinehint nounwind uwtable
define internal fastcc i32 @pmix_convert_string_to_time(ptr noundef %0) unnamed_addr #4 {
  %2 = tail call ptr @PMIx_Argv_split(ptr noundef %0, i32 noundef 58) #8
  %3 = tail call i32 @PMIx_Argv_count(ptr noundef %2) #8
  %4 = sext i32 %3 to i64
  %5 = getelementptr ptr, ptr %2, i64 %4
  %6 = getelementptr i8, ptr %5, i64 -8
  %7 = load ptr, ptr %6, align 8, !tbaa !48
  %8 = tail call i64 @strtoul(ptr noundef captures(none) %7, ptr noundef null, i32 noundef 10) #8
  %9 = icmp sgt i32 %3, 1
  br i1 %9, label %10, label %.thread32

10:                                               ; preds = %1
  %11 = zext nneg i32 %3 to i64
  %12 = getelementptr ptr, ptr %2, i64 %11
  %13 = getelementptr i8, ptr %12, i64 -16
  %14 = load ptr, ptr %13, align 8, !tbaa !48
  %.not = icmp eq ptr %14, null
  br i1 %.not, label %19, label %15

15:                                               ; preds = %10
  %16 = tail call i64 @strtoul(ptr noundef nonnull captures(none) %14, ptr noundef null, i32 noundef 10) #8
  %17 = mul i64 %16, 60
  %18 = add i64 %17, %8
  br label %19

19:                                               ; preds = %15, %10
  %.0.in = phi i64 [ %18, %15 ], [ %8, %10 ]
  %.not34 = icmp eq i32 %3, 2
  br i1 %.not34, label %.thread32, label %20

20:                                               ; preds = %19
  %21 = getelementptr i8, ptr %12, i64 -24
  %22 = load ptr, ptr %21, align 8, !tbaa !48
  %.not29 = icmp eq ptr %22, null
  br i1 %.not29, label %27, label %23

23:                                               ; preds = %20
  %24 = tail call i64 @strtoul(ptr noundef nonnull captures(none) %22, ptr noundef null, i32 noundef 10) #8
  %25 = mul i64 %24, 3600
  %26 = add i64 %25, %.0.in
  br label %27

27:                                               ; preds = %23, %20
  %.1.in = phi i64 [ %26, %23 ], [ %.0.in, %20 ]
  %28 = icmp samesign ugt i32 %3, 3
  br i1 %28, label %29, label %.thread32

29:                                               ; preds = %27
  %30 = getelementptr i8, ptr %12, i64 -32
  %31 = load ptr, ptr %30, align 8, !tbaa !48
  %.not30 = icmp eq ptr %31, null
  br i1 %.not30, label %.thread32, label %32

32:                                               ; preds = %29
  %33 = tail call i64 @strtoul(ptr noundef nonnull captures(none) %31, ptr noundef null, i32 noundef 10) #8
  %34 = mul i64 %33, 86400
  %35 = add i64 %34, %.1.in
  br label %.thread32

.thread32:                                        ; preds = %1, %19, %32, %29, %27
  %.2.in = phi i64 [ %35, %32 ], [ %.1.in, %29 ], [ %.1.in, %27 ], [ %.0.in, %19 ], [ %8, %1 ]
  %.2 = trunc i64 %.2.in to i32
  tail call void @PMIx_Argv_free(ptr noundef nonnull %2) #8
  ret i32 %.2
}